target datalayout = "e-m:e-p270:32:32-p271:32:32-p272:64:64-i64:64-i128:128-f80:128-n8:16:32:64-S128"
target triple = "x86_64-pc-linux-gnu"

; Function Attrs: inlinehint mustprogress nounwind null_pointer_is_valid sspstrong uwtable
define internal void @_ZL7phton32Phj(ptr noundef %0, i32 noundef %1) #7 {
  %3 = alloca ptr, align 8
  %4 = alloca i32, align 4
  store ptr %0, ptr %3, align 8
  store i32 %1, ptr %4, align 4
  %5 = load i32, ptr %4, align 4
  %6 = lshr i32 %5, 24
  %7 = trunc i32 %6 to i8
  %8 = load ptr, ptr %3, align 8
  %9 = getelementptr i8, ptr %8, i64 0
  store i8 %7, ptr %9, align 1
  %10 = load i32, ptr %4, align 4
  %11 = lshr i32 %10, 16
  %12 = trunc i32 %11 to i8
  %13 = load ptr, ptr %3, align 8
  %14 = getelementptr i8, ptr %13, i64 1
  store i8 %12, ptr %14, align 1
  %15 = load i32, ptr %4, align 4
  %16 = lshr i32 %15, 8
  %17 = trunc i32 %16 to i8
  %18 = load ptr, ptr %3, align 8
  %19 = getelementptr i8, ptr %18, i64 2
  store i8 %17, ptr %19, align 1
  %20 = load i32, ptr %4, align 4
  %21 = lshr i32 %20, 0
  %22 = trunc i32 %21 to i8
  %23 = load ptr, ptr %3, align 8
  %24 = getelementptr i8, ptr %23, i64 3
  store i8 %22, ptr %24, align 1
  ret void
}

; Function Attrs: mustprogress null_pointer_is_valid sspstrong uwtable
define noundef i64 @_ZN15RtpPlayerDialog18saveAudioHeaderWAVEP5QFilejjx(ptr noundef align 8 dereferenceable_or_null(472) %0, ptr noundef %1, i32 noundef %2, i32 noundef %3, i64 noundef %4) #0 align 2 {
  %6 = alloca i64, align 8
  %7 = alloca ptr, align 8
  %8 = alloca ptr, align 8
  %9 = alloca i32, align 4
  %10 = alloca i32, align 4
  %11 = alloca i64, align 8
  %12 = alloca [4 x i8], align 1
  %13 = alloca i64, align 8
  %14 = alloca i32, align 4
  %15 = alloca i32, align 4
  %16 = alloca i16, align 2
  %17 = alloca i32, align 4
  store ptr %0, ptr %7, align 8
  store ptr %1, ptr %8, align 8
  store i32 %2, ptr %9, align 4
  store i32 %3, ptr %10, align 4
  store i64 %4, ptr %11, align 8
  call void @llvm.lifetime.start.p0(i64 4, ptr %12) #26
  call void @llvm.lifetime.start.p0(i64 8, ptr %13) #26
  call void @llvm.lifetime.start.p0(i64 4, ptr %14) #26
  call void @llvm.lifetime.start.p0(i64 4, ptr %15) #26
  call void @llvm.lifetime.start.p0(i64 2, ptr %16) #26
  %18 = load i32, ptr %9, align 4
  %19 = zext i32 %18 to i64
  %20 = mul i64 2, %19
  %21 = load i64, ptr %11, align 8
  %22 = trunc i64 %21 to i32
  %23 = sext i32 %22 to i64
  %24 = mul i64 %20, %23
  %25 = trunc i64 %24 to i32
  store i32 %25, ptr %14, align 4
  %26 = getelementptr inbounds [4 x i8], ptr %12, i64 0, i64 0
  call void @_ZL7phton32Phj(ptr noundef %26, i32 noundef 1380533830)
  %27 = load ptr, ptr %8, align 8
  %28 = getelementptr inbounds [4 x i8], ptr %12, i64 0, i64 0
  %29 = call noundef i64 @_ZN9QIODevice5writeEPKcx(ptr noundef align 8 dereferenceable_or_null(16) %27, ptr noundef %28, i64 noundef 4)
  store i64 %29, ptr %13, align 8
  %30 = load i64, ptr %13, align 8
  %31 = icmp ne i64 %30, 4
  br i1 %31, label %32, label %33

32:                                               ; preds = %5
  store i64 -1, ptr %6, align 8
  store i32 1, ptr %17, align 4
  br label %132

33:                                               ; preds = %5
  %34 = load i32, ptr %14, align 4
  %35 = add i32 36, %34
  store i32 %35, ptr %15, align 4
  %36 = load ptr, ptr %8, align 8
  %37 = call noundef i64 @_ZN9QIODevice5writeEPKcx(ptr noundef align 8 dereferenceable_or_null(16) %36, ptr noundef %15, i64 noundef 4)
  store i64 %37, ptr %13, align 8
  %38 = load i64, ptr %13, align 8
  %39 = icmp ne i64 %38, 4
  br i1 %39, label %40, label %41

40:                                               ; preds = %33
  store i64 -1, ptr %6, align 8
  store i32 1, ptr %17, align 4
  br label %132

41:                                               ; preds = %33
  %42 = getelementptr inbounds [4 x i8], ptr %12, i64 0, i64 0
  call void @_ZL7phton32Phj(ptr noundef %42, i32 noundef 1463899717)
  %43 = load ptr, ptr %8, align 8
  %44 = getelementptr inbounds [4 x i8], ptr %12, i64 0, i64 0
  %45 = call noundef i64 @_ZN9QIODevice5writeEPKcx(ptr noundef align 8 dereferenceable_or_null(16) %43, ptr noundef %44, i64 noundef 4)
  store i64 %45, ptr %13, align 8
  %46 = load i64, ptr %13, align 8
  %47 = icmp ne i64 %46, 4
  br i1 %47, label %48, label %49

48:                                               ; preds = %41
  store i64 -1, ptr %6, align 8
  store i32 1, ptr %17, align 4
  br label %132

49:                                               ; preds = %41
  %50 = getelementptr inbounds [4 x i8], ptr %12, i64 0, i64 0
  call void @_ZL7phton32Phj(ptr noundef %50, i32 noundef 1718449184)
  %51 = load ptr, ptr %8, align 8
  %52 = getelementptr inbounds [4 x i8], ptr %12, i64 0, i64 0
  %53 = call noundef i64 @_ZN9QIODevice5writeEPKcx(ptr noundef align 8 dereferenceable_or_null(16) %51, ptr noundef %52, i64 noundef 4)
  store i64 %53, ptr %13, align 8
  %54 = load i64, ptr %13, align 8
  %55 = icmp ne i64 %54, 4
  br i1 %55, label %56, label %57

56:                                               ; preds = %49
  store i64 -1, ptr %6, align 8
  store i32 1, ptr %17, align 4
  br label %132

57:                                               ; preds = %49
  store i32 16, ptr %15, align 4
  %58 = load ptr, ptr %8, align 8
  %59 = call noundef i64 @_ZN9QIODevice5writeEPKcx(ptr noundef align 8 dereferenceable_or_null(16) %58, ptr noundef %15, i64 noundef 4)
  store i64 %59, ptr %13, align 8
  %60 = load i64, ptr %13, align 8
  %61 = icmp ne i64 %60, 4
  br i1 %61, label %62, label %63

62:                                               ; preds = %57
  store i64 -1, ptr %6, align 8
  store i32 1, ptr %17, align 4
  br label %132

63:                                               ; preds = %57
  store i16 1, ptr %16, align 2
  %64 = load ptr, ptr %8, align 8
  %65 = call noundef i64 @_ZN9QIODevice5writeEPKcx(ptr noundef align 8 dereferenceable_or_null(16) %64, ptr noundef %16, i64 noundef 2)
  store i64 %65, ptr %13, align 8
  %66 = load i64, ptr %13, align 8
  %67 = icmp ne i64 %66, 2
  br i1 %67, label %68, label %69

68:                                               ; preds = %63
  store i64 -1, ptr %6, align 8
  store i32 1, ptr %17, align 4
  br label %132

69:                                               ; preds = %63
  %70 = load i32, ptr %9, align 4
  %71 = trunc i32 %70 to i16
  store i16 %71, ptr %16, align 2
  %72 = load ptr, ptr %8, align 8
  %73 = call noundef i64 @_ZN9QIODevice5writeEPKcx(ptr noundef align 8 dereferenceable_or_null(16) %72, ptr noundef %16, i64 noundef 2)
  store i64 %73, ptr %13, align 8
  %74 = load i64, ptr %13, align 8
  %75 = icmp ne i64 %74, 2
  br i1 %75, label %76, label %77

76:                                               ; preds = %69
  store i64 -1, ptr %6, align 8
  store i32 1, ptr %17, align 4
  br label %132

77:                                               ; preds = %69
  %78 = load i32, ptr %10, align 4
  store i32 %78, ptr %15, align 4
  %79 = load ptr, ptr %8, align 8
  %80 = call noundef i64 @_ZN9QIODevice5writeEPKcx(ptr noundef align 8 dereferenceable_or_null(16) %79, ptr noundef %15, i64 noundef 4)
  store i64 %80, ptr %13, align 8
  %81 = load i64, ptr %13, align 8
  %82 = icmp ne i64 %81, 4
  br i1 %82, label %83, label %84

83:                                               ; preds = %77
  store i64 -1, ptr %6, align 8
  store i32 1, ptr %17, align 4
  br label %132

84:                                               ; preds = %77
  %85 = load i32, ptr %10, align 4
  %86 = load i32, ptr %9, align 4
  %87 = mul i32 %85, %86
  %88 = zext i32 %87 to i64
  %89 = mul i64 %88, 2
  %90 = trunc i64 %89 to i32
  store i32 %90, ptr %15, align 4
  %91 = load ptr, ptr %8, align 8
  %92 = call noundef i64 @_ZN9QIODevice5writeEPKcx(ptr noundef align 8 dereferenceable_or_null(16) %91, ptr noundef %15, i64 noundef 4)
  store i64 %92, ptr %13, align 8
  %93 = load i64, ptr %13, align 8
  %94 = icmp ne i64 %93, 4
  br i1 %94, label %95, label %96

95:                                               ; preds = %84
  store i64 -1, ptr %6, align 8
  store i32 1, ptr %17, align 4
  br label %132

96:                                               ; preds = %84
  %97 = load i32, ptr %9, align 4
  %98 = mul i32 %97, 2
  %99 = trunc i32 %98 to i16
  store i16 %99, ptr %16, align 2
  %100 = load ptr, ptr %8, align 8
  %101 = call noundef i64 @_ZN9QIODevice5writeEPKcx(ptr noundef align 8 dereferenceable_or_null(16) %100, ptr noundef %16, i64 noundef 2)
  store i64 %101, ptr %13, align 8
  %102 = load i64, ptr %13, align 8
  %103 = icmp ne i64 %102, 2
  br i1 %103, label %104, label %105

104:                                              ; preds = %96
  store i64 -1, ptr %6, align 8
  store i32 1, ptr %17, align 4
  br label %132

105:                                              ; preds = %96
  store i16 16, ptr %16, align 2
  %106 = load ptr, ptr %8, align 8
  %107 = call noundef i64 @_ZN9QIODevice5writeEPKcx(ptr noundef align 8 dereferenceable_or_null(16) %106, ptr noundef %16, i64 noundef 2)
  store i64 %107, ptr %13, align 8
  %108 = load i64, ptr %13, align 8
  %109 = icmp ne i64 %108, 2
  br i1 %109, label %110, label %111

110:                                              ; preds = %105
  store i64 -1, ptr %6, align 8
  store i32 1, ptr %17, align 4
  br label %132

111:                                              ; preds = %105
  %112 = getelementptr inbounds [4 x i8], ptr %12, i64 0, i64 0
  call void @_ZL7phton32Phj(ptr noundef %112, i32 noundef 1684108385)
  %113 = load ptr, ptr %8, align 8
  %114 = getelementptr inbounds [4 x i8], ptr %12, i64 0, i64 0
  %115 = call noundef i64 @_ZN9QIODevice5writeEPKcx(ptr noundef align 8 dereferenceable_or_null(16) %113, ptr noundef %114, i64 noundef 4)
  store i64 %115, ptr %13, align 8
  %116 = load i64, ptr %13, align 8
  %117 = icmp ne i64 %116, 4
  br i1 %117, label %118, label %119

118:                                              ; preds = %111
  store i64 -1, ptr %6, align 8
  store i32 1, ptr %17, align 4
  br label %132

119:                                              ; preds = %111
  %120 = load i32, ptr %14, align 4
  store i32 %120, ptr %15, align 4
  %121 = load ptr, ptr %8, align 8
  %122 = call noundef i64 @_ZN9QIODevice5writeEPKcx(ptr noundef align 8 dereferenceable_or_null(16) %121, ptr noundef %15, i64 noundef 4)
  store i64 %122, ptr %13, align 8
  %123 = load i64, ptr %13, align 8
  %124 = icmp ne i64 %123, 4
  br i1 %124, label %125, label %126

125:                                              ; preds = %119
  store i64 -1, ptr %6, align 8
  store i32 1, ptr %17, align 4
  br label %132

126:                                              ; preds = %119
  %127 = load ptr, ptr %8, align 8
  %128 = load ptr, ptr %127, align 8
  %129 = getelementptr inbounds ptr, ptr %128, i64 15
  %130 = load ptr, ptr %129, align 8
  %131 = call noundef i64 %130(ptr noundef align 8 dereferenceable_or_null(16) %127)
  store i64 %131, ptr %6, align 8
  store i32 1, ptr %17, align 4
  br label %132

132:                                              ; preds = %126, %125, %118, %110, %104, %95, %83, %76, %68, %62, %56, %48, %40, %32
  call void @llvm.lifetime.end.p0(i64 2, ptr %16) #26
  call void @llvm.lifetime.end.p0(i64 4, ptr %15) #26
  call void @llvm.lifetime.end.p0(i64 4, ptr %14) #26
  call void @llvm.lifetime.end.p0(i64 8, ptr %13) #26
  call void @llvm.lifetime.end.p0(i64 4, ptr %12) #26
  %133 = load i64, ptr %6, align 8
  ret i64 %133
}