; Function Attrs: mustprogress null_pointer_is_valid sspstrong uwtable
define noundef i64 @_ZN15RtpPlayerDialog18saveAudioHeaderWAVEP5QFilejjx(ptr readnone align 8 captures(none) %0, ptr noundef %1, i32 noundef %2, i32 noundef %3, i64 noundef %4) local_unnamed_addr #0 align 2 {
  %6 = alloca [4 x i8], align 1
  %7 = alloca i32, align 4
  %8 = alloca i16, align 2
  call void @llvm.lifetime.start.p0(i64 4, ptr nonnull %6) #26
  call void @llvm.lifetime.start.p0(i64 4, ptr nonnull %7) #26
  call void @llvm.lifetime.start.p0(i64 2, ptr nonnull %8) #26
  %9 = zext i32 %2 to i64
  %10 = shl nuw nsw i64 %9, 1
  %11 = mul i64 %10, %4
  %12 = trunc i64 %11 to i32
  store i8 82, ptr %6, align 1
  %13 = getelementptr inbounds nuw i8, ptr %6, i64 1
  store i8 73, ptr %13, align 1
  %14 = getelementptr inbounds nuw i8, ptr %6, i64 2
  store i8 70, ptr %14, align 1
  %15 = getelementptr inbounds nuw i8, ptr %6, i64 3
  store i8 70, ptr %15, align 1
  %16 = call noundef i64 @_ZN9QIODevice5writeEPKcx(ptr noundef align 8 dereferenceable_or_null(16) %1, ptr noundef nonnull %6, i64 noundef 4)
  %.not = icmp eq i64 %16, 4
  br i1 %.not, label %17, label %51

17:                                               ; preds = %5
  %18 = add i32 %12, 36
  store i32 %18, ptr %7, align 4
  %19 = call noundef i64 @_ZN9QIODevice5writeEPKcx(ptr noundef align 8 dereferenceable_or_null(16) %1, ptr noundef nonnull %7, i64 noundef 4)
  %.not36 = icmp eq i64 %19, 4
  br i1 %.not36, label %20, label %51

20:                                               ; preds = %17
  store i8 87, ptr %6, align 1
  store i8 65, ptr %13, align 1
  store i8 86, ptr %14, align 1
  store i8 69, ptr %15, align 1
  %21 = call noundef i64 @_ZN9QIODevice5writeEPKcx(ptr noundef align 8 dereferenceable_or_null(16) %1, ptr noundef nonnull %6, i64 noundef 4)
  %.not37 = icmp eq i64 %21, 4
  br i1 %.not37, label %22, label %51

22:                                               ; preds = %20
  store i8 102, ptr %6, align 1
  store i8 109, ptr %13, align 1
  store i8 116, ptr %14, align 1
  store i8 32, ptr %15, align 1
  %23 = call noundef i64 @_ZN9QIODevice5writeEPKcx(ptr noundef align 8 dereferenceable_or_null(16) %1, ptr noundef nonnull %6, i64 noundef 4)
  %.not38 = icmp eq i64 %23, 4
  br i1 %.not38, label %24, label %51

24:                                               ; preds = %22
  store i32 16, ptr %7, align 4
  %25 = call noundef i64 @_ZN9QIODevice5writeEPKcx(ptr noundef align 8 dereferenceable_or_null(16) %1, ptr noundef nonnull %7, i64 noundef 4)
  %.not39 = icmp eq i64 %25, 4
  br i1 %.not39, label %26, label %51

26:                                               ; preds = %24
  store i16 1, ptr %8, align 2
  %27 = call noundef i64 @_ZN9QIODevice5writeEPKcx(ptr noundef align 8 dereferenceable_or_null(16) %1, ptr noundef nonnull %8, i64 noundef 2)
  %.not40 = icmp eq i64 %27, 2
  br i1 %.not40, label %28, label %51

28:                                               ; preds = %26
  %29 = trunc i32 %2 to i16
  store i16 %29, ptr %8, align 2
  %30 = call noundef i64 @_ZN9QIODevice5writeEPKcx(ptr noundef align 8 dereferenceable_or_null(16) %1, ptr noundef nonnull %8, i64 noundef 2)
  %.not41 = icmp eq i64 %30, 2
  br i1 %.not41, label %31, label %51

31:                                               ; preds = %28
  store i32 %3, ptr %7, align 4
  %32 = call noundef i64 @_ZN9QIODevice5writeEPKcx(ptr noundef align 8 dereferenceable_or_null(16) %1, ptr noundef nonnull %7, i64 noundef 4)
  %.not42 = icmp eq i64 %32, 4
  br i1 %.not42, label %33, label %51

33:                                               ; preds = %31
  %34 = shl i32 %2, 1
  %35 = mul i32 %34, %3
  store i32 %35, ptr %7, align 4
  %36 = call noundef i64 @_ZN9QIODevice5writeEPKcx(ptr noundef align 8 dereferenceable_or_null(16) %1, ptr noundef nonnull %7, i64 noundef 4)
  %.not43 = icmp eq i64 %36, 4
  br i1 %.not43, label %37, label %51

37:                                               ; preds = %33
  %38 = shl i16 %29, 1
  store i16 %38, ptr %8, align 2
  %39 = call noundef i64 @_ZN9QIODevice5writeEPKcx(ptr noundef align 8 dereferenceable_or_null(16) %1, ptr noundef nonnull %8, i64 noundef 2)
  %.not44 = icmp eq i64 %39, 2
  br i1 %.not44, label %40, label %51

40:                                               ; preds = %37
  store i16 16, ptr %8, align 2
  %41 = call noundef i64 @_ZN9QIODevice5writeEPKcx(ptr noundef align 8 dereferenceable_or_null(16) %1, ptr noundef nonnull %8, i64 noundef 2)
  %.not45 = icmp eq i64 %41, 2
  br i1 %.not45, label %42, label %51

42:                                               ; preds = %40
  store i8 100, ptr %6, align 1
  store i8 97, ptr %13, align 1
  store i8 116, ptr %14, align 1
  store i8 97, ptr %15, align 1
  %43 = call noundef i64 @_ZN9QIODevice5writeEPKcx(ptr noundef align 8 dereferenceable_or_null(16) %1, ptr noundef nonnull %6, i64 noundef 4)
  %.not46 = icmp eq i64 %43, 4
  br i1 %.not46, label %44, label %51

44:                                               ; preds = %42
  store i32 %12, ptr %7, align 4
  %45 = call noundef i64 @_ZN9QIODevice5writeEPKcx(ptr noundef align 8 dereferenceable_or_null(16) %1, ptr noundef nonnull %7, i64 noundef 4)
  %.not47 = icmp eq i64 %45, 4
  br i1 %.not47, label %46, label %51

46:                                               ; preds = %44
  %47 = load ptr, ptr %1, align 8
  %48 = getelementptr inbounds nuw i8, ptr %47, i64 120
  %49 = load ptr, ptr %48, align 8
  %50 = call noundef i64 %49(ptr noundef align 8 dereferenceable_or_null(16) %1)
  br label %51

51:                                               ; preds = %44, %42, %40, %37, %33, %31, %28, %26, %24, %22, %20, %17, %5, %46
  %.0 = phi i64 [ %50, %46 ], [ -1, %5 ], [ -1, %17 ], [ -1, %20 ], [ -1, %22 ], [ -1, %24 ], [ -1, %26 ], [ -1, %28 ], [ -1, %31 ], [ -1, %33 ], [ -1, %37 ], [ -1, %40 ], [ -1, %42 ], [ -1, %44 ]
  call void @llvm.lifetime.end.p0(i64 2, ptr nonnull %8) #26
  call void @llvm.lifetime.end.p0(i64 4, ptr nonnull %7) #26
  call void @llvm.lifetime.end.p0(i64 4, ptr nonnull %6) #26
  ret i64 %.0
}